; Function Attrs: mustprogress nofree norecurse nosync nounwind willreturn memory(read, inaccessiblemem: none) uwtable
define dso_local noundef range(i32 0, 3) i32 @_ZN5clang7CodeGen15CodeGenFunction17getEvaluationKindENS_8QualTypeE(i64 %0) local_unnamed_addr #8 align 2 {
  %2 = and i64 %0, -16
  %3 = inttoptr i64 %2 to ptr
  %4 = getelementptr inbounds nuw i8, ptr %3, i64 8
  br label %5

5:                                                ; preds = %11, %1
  %storemerge.in = phi ptr [ %4, %1 ], [ %12, %11 ]
  %storemerge = load i64, ptr %storemerge.in, align 8
  %6 = and i64 %storemerge, -16
  %7 = inttoptr i64 %6 to ptr
  %8 = load ptr, ptr %7, align 16
  %9 = getelementptr inbounds nuw i8, ptr %8, i64 16
  %10 = load i8, ptr %9, align 16
  switch i8 %10, label %13 [
    i8 7, label %11
    i8 3, label %.loopexit
    i8 35, label %.loopexit
    i8 34, label %.loopexit
    i8 47, label %.loopexit
    i8 6, label %.loopexit
    i8 5, label %.loopexit
    i8 2, label %.loopexit
    i8 14, label %.loopexit.loopexit6
    i8 10, label %.loopexit.loopexit
    i8 40, label %.loopexit.loopexit
    i8 33, label %.loopexit.loopexit
    i8 46, label %.loopexit.loopexit
    i8 25, label %.loopexit.loopexit
    i8 26, label %.loopexit.loopexit
    i8 30, label %.loopexit.loopexit
    i8 57, label %.loopexit.loopexit
    i8 56, label %.loopexit.loopexit
    i8 32, label %.loopexit.loopexit
    i8 43, label %.loopexit.loopexit
    i8 42, label %.loopexit.loopexit
    i8 11, label %.loopexit.loopexit
    i8 41, label %.loopexit.loopexit
    i8 13, label %.loopexit.loopexit
  ]

11:                                               ; preds = %5
  %12 = getelementptr inbounds nuw i8, ptr %8, i64 32
  br label %5, !llvm.loop !32

13:                                               ; preds = %5
  unreachable

.loopexit.loopexit:                               ; preds = %5, %5, %5, %5, %5, %5, %5, %5, %5, %5, %5, %5, %5, %5, %5
  br label %.loopexit

.loopexit.loopexit6:                              ; preds = %5
  br label %.loopexit

.loopexit:                                        ; preds = %5, %5, %5, %5, %5, %5, %5, %.loopexit.loopexit6, %.loopexit.loopexit
  %.0 = phi i32 [ 0, %.loopexit.loopexit ], [ 1, %.loopexit.loopexit6 ], [ 2, %5 ], [ 2, %5 ], [ 2, %5 ], [ 2, %5 ], [ 2, %5 ], [ 2, %5 ], [ 2, %5 ]
  ret i32 %.0
}